; Function Attrs: nounwind uwtable
define hidden zeroext i1 @SDL_ShouldIgnoreJoystick(i16 noundef zeroext %0, i16 noundef zeroext %1, i16 noundef zeroext %2, ptr noundef %3) local_unnamed_addr #1 {
  %5 = zext i16 %0 to i32
  %6 = shl nuw i32 %5, 16
  %7 = zext i16 %1 to i32
  %8 = or disjoint i32 %6, %7
  %9 = load i32, ptr getelementptr inbounds nuw (i8, ptr @blacklist_devices, i64 32), align 8
  %10 = icmp sgt i32 %9, 0
  br i1 %10, label %.lr.ph.i, label %.preheader.i

.lr.ph.i:                                         ; preds = %4
  %11 = load ptr, ptr getelementptr inbounds nuw (i8, ptr @blacklist_devices, i64 40), align 8
  %wide.trip.count.i = zext nneg i32 %9 to i64
  br label %16

12:                                               ; preds = %16
  %indvars.iv.next.i = add nuw nsw i64 %indvars.iv.i, 1
  %exitcond.not.i = icmp eq i64 %indvars.iv.next.i, %wide.trip.count.i
  br i1 %exitcond.not.i, label %.preheader.i, label %16, !llvm.loop !17

.preheader.i:                                     ; preds = %12, %4
  %13 = load i32, ptr getelementptr inbounds nuw (i8, ptr @blacklist_devices, i64 8), align 8
  %14 = icmp sgt i32 %13, 0
  br i1 %14, label %.lr.ph18.i, label %.loopexit

.lr.ph18.i:                                       ; preds = %.preheader.i
  %15 = load ptr, ptr getelementptr inbounds nuw (i8, ptr @blacklist_devices, i64 16), align 8
  %wide.trip.count26.i = zext nneg i32 %13 to i64
  br label %21

16:                                               ; preds = %12, %.lr.ph.i
  %indvars.iv.i = phi i64 [ 0, %.lr.ph.i ], [ %indvars.iv.next.i, %12 ]
  %17 = getelementptr inbounds nuw i32, ptr %11, i64 %indvars.iv.i
  %18 = load i32, ptr %17, align 4
  %19 = icmp eq i32 %8, %18
  br i1 %19, label %.loopexit, label %12

20:                                               ; preds = %21
  %indvars.iv.next24.i = add nuw nsw i64 %indvars.iv23.i, 1
  %exitcond27.not.i = icmp eq i64 %indvars.iv.next24.i, %wide.trip.count26.i
  br i1 %exitcond27.not.i, label %.loopexit, label %21, !llvm.loop !18

21:                                               ; preds = %20, %.lr.ph18.i
  %indvars.iv23.i = phi i64 [ 0, %.lr.ph18.i ], [ %indvars.iv.next24.i, %20 ]
  %22 = getelementptr inbounds nuw i32, ptr %15, i64 %indvars.iv23.i
  %23 = load i32, ptr %22, align 4
  %24 = icmp eq i32 %8, %23
  br i1 %24, label %SDL_VIDPIDInList.exit, label %20

.loopexit:                                        ; preds = %16, %20, %.preheader.i
  %25 = tail call zeroext i1 @SDL_GetHintBoolean_REAL(ptr noundef nonnull @.str.16, i1 noundef zeroext false) #13
  br i1 %25, label %SDL_VIDPIDInList.exit20.thread, label %26

26:                                               ; preds = %.loopexit
  %27 = load i32, ptr getelementptr inbounds nuw (i8, ptr @rog_gamepad_mice, i64 32), align 8
  %28 = icmp sgt i32 %27, 0
  br i1 %28, label %.lr.ph.i15, label %.preheader.i8

.lr.ph.i15:                                       ; preds = %26
  %29 = load ptr, ptr getelementptr inbounds nuw (i8, ptr @rog_gamepad_mice, i64 40), align 8
  %wide.trip.count.i16 = zext nneg i32 %27 to i64
  br label %34

30:                                               ; preds = %34
  %indvars.iv.next.i18 = add nuw nsw i64 %indvars.iv.i17, 1
  %exitcond.not.i19 = icmp eq i64 %indvars.iv.next.i18, %wide.trip.count.i16
  br i1 %exitcond.not.i19, label %.preheader.i8, label %34, !llvm.loop !17

.preheader.i8:                                    ; preds = %30, %26
  %31 = load i32, ptr getelementptr inbounds nuw (i8, ptr @rog_gamepad_mice, i64 8), align 8
  %32 = icmp sgt i32 %31, 0
  br i1 %32, label %.lr.ph18.i10, label %SDL_VIDPIDInList.exit20.thread

.lr.ph18.i10:                                     ; preds = %.preheader.i8
  %33 = load ptr, ptr getelementptr inbounds nuw (i8, ptr @rog_gamepad_mice, i64 16), align 8
  %wide.trip.count26.i11 = zext nneg i32 %31 to i64
  br label %39

34:                                               ; preds = %30, %.lr.ph.i15
  %indvars.iv.i17 = phi i64 [ 0, %.lr.ph.i15 ], [ %indvars.iv.next.i18, %30 ]
  %35 = getelementptr inbounds nuw i32, ptr %29, i64 %indvars.iv.i17
  %36 = load i32, ptr %35, align 4
  %37 = icmp eq i32 %8, %36
  br i1 %37, label %SDL_VIDPIDInList.exit20.thread, label %30

38:                                               ; preds = %39
  %indvars.iv.next24.i13 = add nuw nsw i64 %indvars.iv23.i12, 1
  %exitcond27.not.i14 = icmp eq i64 %indvars.iv.next24.i13, %wide.trip.count26.i11
  br i1 %exitcond27.not.i14, label %SDL_VIDPIDInList.exit20.thread, label %39, !llvm.loop !18

39:                                               ; preds = %38, %.lr.ph18.i10
  %indvars.iv23.i12 = phi i64 [ 0, %.lr.ph18.i10 ], [ %indvars.iv.next24.i13, %38 ]
  %40 = getelementptr inbounds nuw i32, ptr %33, i64 %indvars.iv23.i12
  %41 = load i32, ptr %40, align 4
  %42 = icmp eq i32 %8, %41
  br i1 %42, label %SDL_VIDPIDInList.exit, label %38

SDL_VIDPIDInList.exit20.thread:                   ; preds = %34, %38, %.preheader.i8, %.loopexit
  %43 = tail call zeroext i1 @SDL_ShouldIgnoreGamepad(i16 noundef zeroext %0, i16 noundef zeroext %1, i16 noundef zeroext %2, ptr noundef %3) #13
  br label %SDL_VIDPIDInList.exit

SDL_VIDPIDInList.exit:                            ; preds = %21, %39, %SDL_VIDPIDInList.exit20.thread
  %.0 = phi i1 [ %43, %SDL_VIDPIDInList.exit20.thread ], [ true, %39 ], [ true, %21 ]
  ret i1 %.0
}